target datalayout = "e-m:e-p270:32:32-p271:32:32-p272:64:64-i64:64-i128:128-f80:128-n8:16:32:64-S128"
target triple = "x86_64-pc-linux-gnu"

; Function Attrs: nounwind uwtable
define internal i32 @crc32_slice8(i32 noundef %0, ptr noundef %1, i64 noundef %2) #0 {
  %4 = alloca i32, align 4
  %5 = alloca ptr, align 8
  %6 = alloca i64, align 8
  %7 = alloca ptr, align 8
  %8 = alloca ptr, align 8
  %9 = alloca i32, align 4
  %10 = alloca i32, align 4
  store i32 %0, ptr %4, align 4, !tbaa !4
  store ptr %1, ptr %5, align 8, !tbaa !12
  store i64 %2, ptr %6, align 8, !tbaa !10
  call void @llvm.lifetime.start.p0(i64 8, ptr %7) #28
  %11 = load ptr, ptr %5, align 8, !tbaa !12
  %12 = load i64, ptr %6, align 8, !tbaa !10
  %13 = getelementptr inbounds nuw i8, ptr %11, i64 %12
  store ptr %13, ptr %7, align 8, !tbaa !12
  call void @llvm.lifetime.start.p0(i64 8, ptr %8) #28
  br label %14

14:                                               ; preds = %39, %3
  %15 = load ptr, ptr %5, align 8, !tbaa !12
  %16 = ptrtoint ptr %15 to i64
  %17 = and i64 %16, 7
  %18 = icmp ne i64 %17, 0
  br i1 %18, label %19, label %23

19:                                               ; preds = %14
  %20 = load ptr, ptr %5, align 8, !tbaa !12
  %21 = load ptr, ptr %7, align 8, !tbaa !12
  %22 = icmp ne ptr %20, %21
  br label %23

23:                                               ; preds = %19, %14
  %24 = phi i1 [ false, %14 ], [ %22, %19 ]
  br i1 %24, label %25, label %42

25:                                               ; preds = %23
  %26 = load i32, ptr %4, align 4, !tbaa !4
  %27 = lshr i32 %26, 8
  %28 = load i32, ptr %4, align 4, !tbaa !4
  %29 = trunc i32 %28 to i8
  %30 = zext i8 %29 to i32
  %31 = load ptr, ptr %5, align 8, !tbaa !12
  %32 = load i8, ptr %31, align 1, !tbaa !14
  %33 = zext i8 %32 to i32
  %34 = xor i32 %30, %33
  %35 = sext i32 %34 to i64
  %36 = getelementptr inbounds [2048 x i32], ptr @crc32_slice8_table, i64 0, i64 %35
  %37 = load i32, ptr %36, align 4, !tbaa !4
  %38 = xor i32 %27, %37
  store i32 %38, ptr %4, align 4, !tbaa !4
  br label %39

39:                                               ; preds = %25
  %40 = load ptr, ptr %5, align 8, !tbaa !12
  %41 = getelementptr inbounds nuw i8, ptr %40, i32 1
  store ptr %41, ptr %5, align 8, !tbaa !12
  br label %14

42:                                               ; preds = %23
  %43 = load ptr, ptr %5, align 8, !tbaa !12
  %44 = load ptr, ptr %7, align 8, !tbaa !12
  %45 = load ptr, ptr %5, align 8, !tbaa !12
  %46 = ptrtoint ptr %44 to i64
  %47 = ptrtoint ptr %45 to i64
  %48 = sub i64 %46, %47
  %49 = and i64 %48, -8
  %50 = getelementptr inbounds i8, ptr %43, i64 %49
  store ptr %50, ptr %8, align 8, !tbaa !12
  br label %51

51:                                               ; preds = %141, %42
  %52 = load ptr, ptr %5, align 8, !tbaa !12
  %53 = load ptr, ptr %8, align 8, !tbaa !12
  %54 = icmp ne ptr %52, %53
  br i1 %54, label %55, label %144

55:                                               ; preds = %51
  call void @llvm.lifetime.start.p0(i64 4, ptr %9) #28
  %56 = load ptr, ptr %5, align 8, !tbaa !12
  %57 = getelementptr inbounds i8, ptr %56, i64 0
  %58 = load i32, ptr %57, align 4, !tbaa !4
  store i32 %58, ptr %9, align 4, !tbaa !4
  call void @llvm.lifetime.start.p0(i64 4, ptr %10) #28
  %59 = load ptr, ptr %5, align 8, !tbaa !12
  %60 = getelementptr inbounds i8, ptr %59, i64 4
  %61 = load i32, ptr %60, align 4, !tbaa !4
  store i32 %61, ptr %10, align 4, !tbaa !4
  %62 = load i32, ptr %4, align 4, !tbaa !4
  %63 = load i32, ptr %9, align 4, !tbaa !4
  %64 = xor i32 %62, %63
  %65 = lshr i32 %64, 0
  %66 = trunc i32 %65 to i8
  %67 = zext i8 %66 to i32
  %68 = add nsw i32 1792, %67
  %69 = sext i32 %68 to i64
  %70 = getelementptr inbounds [2048 x i32], ptr @crc32_slice8_table, i64 0, i64 %69
  %71 = load i32, ptr %70, align 4, !tbaa !4
  %72 = load i32, ptr %4, align 4, !tbaa !4
  %73 = load i32, ptr %9, align 4, !tbaa !4
  %74 = xor i32 %72, %73
  %75 = lshr i32 %74, 8
  %76 = trunc i32 %75 to i8
  %77 = zext i8 %76 to i32
  %78 = add nsw i32 1536, %77
  %79 = sext i32 %78 to i64
  %80 = getelementptr inbounds [2048 x i32], ptr @crc32_slice8_table, i64 0, i64 %79
  %81 = load i32, ptr %80, align 4, !tbaa !4
  %82 = xor i32 %71, %81
  %83 = load i32, ptr %4, align 4, !tbaa !4
  %84 = load i32, ptr %9, align 4, !tbaa !4
  %85 = xor i32 %83, %84
  %86 = lshr i32 %85, 16
  %87 = trunc i32 %86 to i8
  %88 = zext i8 %87 to i32
  %89 = add nsw i32 1280, %88
  %90 = sext i32 %89 to i64
  %91 = getelementptr inbounds [2048 x i32], ptr @crc32_slice8_table, i64 0, i64 %90
  %92 = load i32, ptr %91, align 4, !tbaa !4
  %93 = xor i32 %82, %92
  %94 = load i32, ptr %4, align 4, !tbaa !4
  %95 = load i32, ptr %9, align 4, !tbaa !4
  %96 = xor i32 %94, %95
  %97 = lshr i32 %96, 24
  %98 = trunc i32 %97 to i8
  %99 = zext i8 %98 to i32
  %100 = add nsw i32 1024, %99
  %101 = sext i32 %100 to i64
  %102 = getelementptr inbounds [2048 x i32], ptr @crc32_slice8_table, i64 0, i64 %101
  %103 = load i32, ptr %102, align 4, !tbaa !4
  %104 = xor i32 %93, %103
  %105 = load i32, ptr %10, align 4, !tbaa !4
  %106 = lshr i32 %105, 0
  %107 = trunc i32 %106 to i8
  %108 = zext i8 %107 to i32
  %109 = add nsw i32 768, %108
  %110 = sext i32 %109 to i64
  %111 = getelementptr inbounds [2048 x i32], ptr @crc32_slice8_table, i64 0, i64 %110
  %112 = load i32, ptr %111, align 4, !tbaa !4
  %113 = xor i32 %104, %112
  %114 = load i32, ptr %10, align 4, !tbaa !4
  %115 = lshr i32 %114, 8
  %116 = trunc i32 %115 to i8
  %117 = zext i8 %116 to i32
  %118 = add nsw i32 512, %117
  %119 = sext i32 %118 to i64
  %120 = getelementptr inbounds [2048 x i32], ptr @crc32_slice8_table, i64 0, i64 %119
  %121 = load i32, ptr %120, align 4, !tbaa !4
  %122 = xor i32 %113, %121
  %123 = load i32, ptr %10, align 4, !tbaa !4
  %124 = lshr i32 %123, 16
  %125 = trunc i32 %124 to i8
  %126 = zext i8 %125 to i32
  %127 = add nsw i32 256, %126
  %128 = sext i32 %127 to i64
  %129 = getelementptr inbounds [2048 x i32], ptr @crc32_slice8_table, i64 0, i64 %128
  %130 = load i32, ptr %129, align 4, !tbaa !4
  %131 = xor i32 %122, %130
  %132 = load i32, ptr %10, align 4, !tbaa !4
  %133 = lshr i32 %132, 24
  %134 = trunc i32 %133 to i8
  %135 = zext i8 %134 to i32
  %136 = add nsw i32 0, %135
  %137 = sext i32 %136 to i64
  %138 = getelementptr inbounds [2048 x i32], ptr @crc32_slice8_table, i64 0, i64 %137
  %139 = load i32, ptr %138, align 4, !tbaa !4
  %140 = xor i32 %131, %139
  store i32 %140, ptr %4, align 4, !tbaa !4
  call void @llvm.lifetime.end.p0(i64 4, ptr %10) #28
  call void @llvm.lifetime.end.p0(i64 4, ptr %9) #28
  br label %141

141:                                              ; preds = %55
  %142 = load ptr, ptr %5, align 8, !tbaa !12
  %143 = getelementptr inbounds i8, ptr %142, i64 8
  store ptr %143, ptr %5, align 8, !tbaa !12
  br label %51

144:                                              ; preds = %51
  br label %145

145:                                              ; preds = %163, %144
  %146 = load ptr, ptr %5, align 8, !tbaa !12
  %147 = load ptr, ptr %7, align 8, !tbaa !12
  %148 = icmp ne ptr %146, %147
  br i1 %148, label %149, label %166

149:                                              ; preds = %145
  %150 = load i32, ptr %4, align 4, !tbaa !4
  %151 = lshr i32 %150, 8
  %152 = load i32, ptr %4, align 4, !tbaa !4
  %153 = trunc i32 %152 to i8
  %154 = zext i8 %153 to i32
  %155 = load ptr, ptr %5, align 8, !tbaa !12
  %156 = load i8, ptr %155, align 1, !tbaa !14
  %157 = zext i8 %156 to i32
  %158 = xor i32 %154, %157
  %159 = sext i32 %158 to i64
  %160 = getelementptr inbounds [2048 x i32], ptr @crc32_slice8_table, i64 0, i64 %159
  %161 = load i32, ptr %160, align 4, !tbaa !4
  %162 = xor i32 %151, %161
  store i32 %162, ptr %4, align 4, !tbaa !4
  br label %163

163:                                              ; preds = %149
  %164 = load ptr, ptr %5, align 8, !tbaa !12
  %165 = getelementptr inbounds nuw i8, ptr %164, i32 1
  store ptr %165, ptr %5, align 8, !tbaa !12
  br label %145

166:                                              ; preds = %145
  %167 = load i32, ptr %4, align 4, !tbaa !4
  call void @llvm.lifetime.end.p0(i64 8, ptr %8) #28
  call void @llvm.lifetime.end.p0(i64 8, ptr %7) #28
  ret i32 %167
}