; Function Attrs: nofree norecurse nosync nounwind memory(argmem: read) uwtable
define internal i32 @crc32_slice8(i32 noundef %0, ptr noundef %1, i64 noundef %2) #1 {
  %4 = getelementptr inbounds nuw i8, ptr %1, i64 %2
  %5 = ptrtoint ptr %1 to i64
  %6 = and i64 %5, 7
  %7 = icmp ne i64 %6, 0
  %8 = icmp samesign ne i64 %2, 0
  %9 = select i1 %7, i1 %8, i1 false
  br i1 %9, label %.lr.ph, label %._crit_edge

.lr.ph:                                           ; preds = %3, %.lr.ph
  %.040 = phi i32 [ %18, %.lr.ph ], [ %0, %3 ]
  %.03539 = phi ptr [ %19, %.lr.ph ], [ %1, %3 ]
  %10 = lshr i32 %.040, 8
  %11 = and i32 %.040, 255
  %12 = load i8, ptr %.03539, align 1, !tbaa !10
  %13 = zext i8 %12 to i32
  %14 = xor i32 %11, %13
  %15 = zext nneg i32 %14 to i64
  %16 = getelementptr inbounds nuw [2048 x i32], ptr @crc32_slice8_table, i64 0, i64 %15
  %17 = load i32, ptr %16, align 4, !tbaa !8
  %18 = xor i32 %17, %10
  %19 = getelementptr inbounds nuw i8, ptr %.03539, i64 1
  %20 = ptrtoint ptr %19 to i64
  %21 = and i64 %20, 7
  %22 = icmp ne i64 %21, 0
  %23 = icmp ne ptr %19, %4
  %24 = select i1 %22, i1 %23, i1 false
  br i1 %24, label %.lr.ph, label %._crit_edge

._crit_edge:                                      ; preds = %.lr.ph, %3
  %.035.lcssa = phi ptr [ %1, %3 ], [ %19, %.lr.ph ]
  %.0.lcssa = phi i32 [ %0, %3 ], [ %18, %.lr.ph ]
  %.lcssa = phi i64 [ %5, %3 ], [ %20, %.lr.ph ]
  %25 = ptrtoint ptr %4 to i64
  %26 = sub i64 %25, %.lcssa
  %27 = and i64 %26, -8
  %28 = getelementptr inbounds i8, ptr %.035.lcssa, i64 %27
  %.not43 = icmp eq i64 %27, 0
  br i1 %.not43, label %.preheader, label %.lr.ph47

.preheader:                                       ; preds = %.lr.ph47, %._crit_edge
  %.136.lcssa = phi ptr [ %.035.lcssa, %._crit_edge ], [ %28, %.lr.ph47 ]
  %.1.lcssa = phi i32 [ %.0.lcssa, %._crit_edge ], [ %82, %.lr.ph47 ]
  %.not3850 = icmp eq ptr %.136.lcssa, %4
  br i1 %.not3850, label %._crit_edge54, label %.lr.ph53

.lr.ph47:                                         ; preds = %._crit_edge, %.lr.ph47
  %.145 = phi i32 [ %82, %.lr.ph47 ], [ %.0.lcssa, %._crit_edge ]
  %.13644 = phi ptr [ %83, %.lr.ph47 ], [ %.035.lcssa, %._crit_edge ]
  %29 = load i32, ptr %.13644, align 4, !tbaa !8
  %30 = getelementptr inbounds nuw i8, ptr %.13644, i64 4
  %31 = load i32, ptr %30, align 4, !tbaa !8
  %32 = xor i32 %29, %.145
  %33 = and i32 %32, 255
  %34 = or disjoint i32 %33, 1792
  %35 = zext nneg i32 %34 to i64
  %36 = getelementptr inbounds nuw [2048 x i32], ptr @crc32_slice8_table, i64 0, i64 %35
  %37 = load i32, ptr %36, align 4, !tbaa !8
  %38 = lshr i32 %32, 8
  %39 = and i32 %38, 255
  %40 = or disjoint i32 %39, 1536
  %41 = zext nneg i32 %40 to i64
  %42 = getelementptr inbounds nuw [2048 x i32], ptr @crc32_slice8_table, i64 0, i64 %41
  %43 = load i32, ptr %42, align 4, !tbaa !8
  %44 = xor i32 %43, %37
  %45 = lshr i32 %32, 16
  %46 = and i32 %45, 255
  %47 = or disjoint i32 %46, 1280
  %48 = zext nneg i32 %47 to i64
  %49 = getelementptr inbounds nuw [2048 x i32], ptr @crc32_slice8_table, i64 0, i64 %48
  %50 = load i32, ptr %49, align 4, !tbaa !8
  %51 = xor i32 %44, %50
  %52 = lshr i32 %32, 24
  %53 = or disjoint i32 %52, 1024
  %54 = zext nneg i32 %53 to i64
  %55 = getelementptr inbounds nuw [2048 x i32], ptr @crc32_slice8_table, i64 0, i64 %54
  %56 = load i32, ptr %55, align 4, !tbaa !8
  %57 = xor i32 %51, %56
  %58 = and i32 %31, 255
  %59 = or disjoint i32 %58, 768
  %60 = zext nneg i32 %59 to i64
  %61 = getelementptr inbounds nuw [2048 x i32], ptr @crc32_slice8_table, i64 0, i64 %60
  %62 = load i32, ptr %61, align 4, !tbaa !8
  %63 = xor i32 %57, %62
  %64 = lshr i32 %31, 8
  %65 = and i32 %64, 255
  %66 = or disjoint i32 %65, 512
  %67 = zext nneg i32 %66 to i64
  %68 = getelementptr inbounds nuw [2048 x i32], ptr @crc32_slice8_table, i64 0, i64 %67
  %69 = load i32, ptr %68, align 4, !tbaa !8
  %70 = xor i32 %63, %69
  %71 = lshr i32 %31, 16
  %72 = and i32 %71, 255
  %73 = or disjoint i32 %72, 256
  %74 = zext nneg i32 %73 to i64
  %75 = getelementptr inbounds nuw [2048 x i32], ptr @crc32_slice8_table, i64 0, i64 %74
  %76 = load i32, ptr %75, align 4, !tbaa !8
  %77 = xor i32 %70, %76
  %78 = lshr i32 %31, 24
  %79 = zext nneg i32 %78 to i64
  %80 = getelementptr inbounds nuw [2048 x i32], ptr @crc32_slice8_table, i64 0, i64 %79
  %81 = load i32, ptr %80, align 4, !tbaa !8
  %82 = xor i32 %77, %81
  %83 = getelementptr inbounds nuw i8, ptr %.13644, i64 8
  %.not = icmp eq ptr %83, %28
  br i1 %.not, label %.preheader, label %.lr.ph47

.lr.ph53:                                         ; preds = %.preheader, %.lr.ph53
  %.252 = phi i32 [ %92, %.lr.ph53 ], [ %.1.lcssa, %.preheader ]
  %.23751 = phi ptr [ %93, %.lr.ph53 ], [ %.136.lcssa, %.preheader ]
  %84 = lshr i32 %.252, 8
  %85 = and i32 %.252, 255
  %86 = load i8, ptr %.23751, align 1, !tbaa !10
  %87 = zext i8 %86 to i32
  %88 = xor i32 %85, %87
  %89 = zext nneg i32 %88 to i64
  %90 = getelementptr inbounds nuw [2048 x i32], ptr @crc32_slice8_table, i64 0, i64 %89
  %91 = load i32, ptr %90, align 4, !tbaa !8
  %92 = xor i32 %91, %84
  %93 = getelementptr inbounds nuw i8, ptr %.23751, i64 1
  %.not38 = icmp eq ptr %93, %4
  br i1 %.not38, label %._crit_edge54, label %.lr.ph53

._crit_edge54:                                    ; preds = %.lr.ph53, %.preheader
  %.2.lcssa = phi i32 [ %.1.lcssa, %.preheader ], [ %92, %.lr.ph53 ]
  ret i32 %.2.lcssa
}